target datalayout = "e-m:e-p270:32:32-p271:32:32-p272:64:64-i64:64-i128:128-f80:128-n8:16:32:64-S128"
target triple = "x86_64-pc-linux-gnu"

%struct.Vec_Int_t_ = type { i32, i32, ptr }
%struct.Gia_Man_t_ = type { ptr, ptr, i32, i32, i32, i32, ptr, ptr, i32, i32, i32, ptr, ptr, %struct.Vec_Int_t_, %struct.Vec_Int_t_, i32, i32, i32, %struct.Vec_Int_t_, ptr, ptr, ptr, i32, i32, i32, i32, ptr, ptr, ptr, ptr, ptr, i32, i32, ptr, i32, ptr, ptr, ptr, ptr, ptr, ptr, ptr, ptr, ptr, ptr, ptr, ptr, ptr, ptr, ptr, ptr, ptr, ptr, %struct.Vec_Int_t_, %struct.Vec_Int_t_, ptr, ptr, ptr, ptr, ptr, ptr, ptr, ptr, ptr, ptr, ptr, ptr, ptr, ptr, ptr, ptr, ptr, ptr, ptr, ptr, ptr, i32, float, float, ptr, ptr, i32, ptr, ptr, ptr, ptr, ptr, ptr, ptr, ptr, ptr, ptr, ptr, ptr, ptr, ptr, ptr, i64, i64, ptr, ptr, i32, i32, i32, i32, i32, i32, i32, i32, i32, i32, i32, i32, ptr, ptr, ptr, ptr, ptr, ptr, ptr, ptr, i32, i32, i32, ptr, i32, i32, ptr, ptr, ptr, ptr, ptr, ptr, i32, i32, ptr, %struct.Vec_Int_t_, %struct.Vec_Int_t_, %struct.Vec_Int_t_, ptr, ptr, ptr, i32, i32, i32, i32, ptr, ptr, ptr, ptr, ptr }

; Function Attrs: nounwind uwtable
define ptr @Nf_ManPerformMapping(ptr noundef %0, ptr noundef %1) #0 {
  %3 = alloca ptr, align 8
  %4 = alloca ptr, align 8
  %5 = alloca ptr, align 8
  %6 = alloca ptr, align 8
  %7 = alloca i32, align 4
  store ptr %0, ptr %4, align 8, !tbaa !84
  store ptr %1, ptr %5, align 8, !tbaa !85
  call void @llvm.lifetime.start.p0(i64 8, ptr %6) #13
  %8 = load ptr, ptr %4, align 8, !tbaa !84
  %9 = getelementptr inbounds nuw %struct.Gia_Man_t_, ptr %8, i32 0, i32 95
  %10 = load ptr, ptr %9, align 8, !tbaa !101
  %11 = icmp ne ptr %10, null
  br i1 %11, label %12, label %50

12:                                               ; preds = %2
  %13 = load ptr, ptr %4, align 8, !tbaa !84
  %14 = getelementptr inbounds nuw %struct.Gia_Man_t_, ptr %13, i32 0, i32 95
  %15 = load ptr, ptr %14, align 8, !tbaa !101
  %16 = call i32 @Tim_ManBoxNum(ptr noundef %15)
  %17 = icmp ne i32 %16, 0
  br i1 %17, label %18, label %50

18:                                               ; preds = %12
  %19 = load ptr, ptr %4, align 8, !tbaa !84
  %20 = call i32 @Gia_ManIsNormalized(ptr noundef %19)
  %21 = icmp ne i32 %20, 0
  br i1 %21, label %22, label %50

22:                                               ; preds = %18
  %23 = load ptr, ptr %4, align 8, !tbaa !84
  %24 = call ptr @Gia_ManDupUnnormalize(ptr noundef %23)
  store ptr %24, ptr %6, align 8, !tbaa !84
  %25 = load ptr, ptr %6, align 8, !tbaa !84
  %26 = icmp eq ptr %25, null
  br i1 %26, label %27, label %28

27:                                               ; preds = %22
  store ptr null, ptr %3, align 8
  store i32 1, ptr %7, align 4
  br label %58

28:                                               ; preds = %22
  %29 = load ptr, ptr %6, align 8, !tbaa !84
  %30 = load ptr, ptr %4, align 8, !tbaa !84
  call void @Gia_ManTransferTiming(ptr noundef %29, ptr noundef %30)
  %31 = load ptr, ptr %6, align 8, !tbaa !84
  store ptr %31, ptr %4, align 8, !tbaa !84
  %32 = load ptr, ptr %4, align 8, !tbaa !84
  %33 = load ptr, ptr %5, align 8, !tbaa !85
  %34 = call ptr @Nf_ManPerformMappingInt(ptr noundef %32, ptr noundef %33)
  store ptr %34, ptr %6, align 8, !tbaa !84
  %35 = load ptr, ptr %6, align 8, !tbaa !84
  %36 = load ptr, ptr %4, align 8, !tbaa !84
  %37 = icmp ne ptr %35, %36
  br i1 %37, label %38, label %42

38:                                               ; preds = %28
  %39 = load ptr, ptr %6, align 8, !tbaa !84
  %40 = load ptr, ptr %4, align 8, !tbaa !84
  call void @Gia_ManTransferTiming(ptr noundef %39, ptr noundef %40)
  %41 = load ptr, ptr %4, align 8, !tbaa !84
  call void @Gia_ManStop(ptr noundef %41)
  br label %42

42:                                               ; preds = %38, %28
  %43 = load ptr, ptr %6, align 8, !tbaa !84
  store ptr %43, ptr %4, align 8, !tbaa !84
  %44 = call ptr @Gia_ManDupNormalize(ptr noundef %43, i32 noundef 0)
  store ptr %44, ptr %6, align 8, !tbaa !84
  %45 = load ptr, ptr %6, align 8, !tbaa !84
  %46 = load ptr, ptr %4, align 8, !tbaa !84
  call void @Gia_ManTransferCellMapping(ptr noundef %45, ptr noundef %46)
  %47 = load ptr, ptr %6, align 8, !tbaa !84
  %48 = load ptr, ptr %4, align 8, !tbaa !84
  call void @Gia_ManTransferTiming(ptr noundef %47, ptr noundef %48)
  %49 = load ptr, ptr %4, align 8, !tbaa !84
  call void @Gia_ManStop(ptr noundef %49)
  br label %56

50:                                               ; preds = %18, %12, %2
  %51 = load ptr, ptr %4, align 8, !tbaa !84
  %52 = load ptr, ptr %5, align 8, !tbaa !85
  %53 = call ptr @Nf_ManPerformMappingInt(ptr noundef %51, ptr noundef %52)
  store ptr %53, ptr %6, align 8, !tbaa !84
  %54 = load ptr, ptr %6, align 8, !tbaa !84
  %55 = load ptr, ptr %4, align 8, !tbaa !84
  call void @Gia_ManTransferTiming(ptr noundef %54, ptr noundef %55)
  br label %56

56:                                               ; preds = %50, %42
  %57 = load ptr, ptr %6, align 8, !tbaa !84
  store ptr %57, ptr %3, align 8
  store i32 1, ptr %7, align 4
  br label %58

58:                                               ; preds = %56, %27
  call void @llvm.lifetime.end.p0(i64 8, ptr %6) #13
  %59 = load ptr, ptr %3, align 8
  ret ptr %59
}