; Function Attrs: nounwind uwtable
define noundef ptr @Nf_ManPerformMapping(ptr noundef %0, ptr noundef %1) local_unnamed_addr #2 {
  %3 = getelementptr inbounds nuw i8, ptr %0, i64 736
  %4 = load ptr, ptr %3, align 8, !tbaa !101
  %.not = icmp eq ptr %4, null
  br i1 %.not, label %17, label %5

5:                                                ; preds = %2
  %6 = tail call i32 @Tim_ManBoxNum(ptr noundef nonnull %4) #26
  %.not31 = icmp eq i32 %6, 0
  br i1 %.not31, label %17, label %7

7:                                                ; preds = %5
  %8 = tail call i32 @Gia_ManIsNormalized(ptr noundef nonnull %0) #26
  %.not32 = icmp eq i32 %8, 0
  br i1 %.not32, label %17, label %9

9:                                                ; preds = %7
  %10 = tail call ptr @Gia_ManDupUnnormalize(ptr noundef nonnull %0) #26
  %11 = icmp eq ptr %10, null
  br i1 %11, label %19, label %12

12:                                               ; preds = %9
  tail call void @Gia_ManTransferTiming(ptr noundef nonnull %10, ptr noundef nonnull %0) #26
  %13 = tail call ptr @Nf_ManPerformMappingInt(ptr noundef nonnull %10, ptr noundef %1)
  %.not33 = icmp eq ptr %13, %10
  br i1 %.not33, label %15, label %14

14:                                               ; preds = %12
  tail call void @Gia_ManTransferTiming(ptr noundef %13, ptr noundef nonnull %10) #26
  tail call void @Gia_ManStop(ptr noundef nonnull %10) #26
  br label %15

15:                                               ; preds = %14, %12
  %16 = tail call ptr @Gia_ManDupNormalize(ptr noundef %13, i32 noundef 0) #26
  tail call void @Gia_ManTransferCellMapping(ptr noundef %16, ptr noundef %13)
  tail call void @Gia_ManTransferTiming(ptr noundef %16, ptr noundef %13) #26
  tail call void @Gia_ManStop(ptr noundef %13) #26
  br label %19

17:                                               ; preds = %7, %5, %2
  %18 = tail call ptr @Nf_ManPerformMappingInt(ptr noundef nonnull %0, ptr noundef %1)
  tail call void @Gia_ManTransferTiming(ptr noundef %18, ptr noundef nonnull %0) #26
  br label %19

19:                                               ; preds = %15, %17, %9
  %.027 = phi ptr [ null, %9 ], [ %16, %15 ], [ %18, %17 ]
  ret ptr %.027
}